; Function Attrs: mustprogress uwtable
define dso_local void @_Z8lua_callP9lua_Stateii(ptr noundef %0, i32 noundef %1, i32 noundef %2) local_unnamed_addr #3 {
  %4 = getelementptr inbounds nuw i8, ptr %0, i64 8
  %5 = load ptr, ptr %4, align 8, !tbaa !19
  %narrow = xor i32 %1, -1
  %6 = sext i32 %narrow to i64
  %7 = getelementptr inbounds %struct.lua_TValue, ptr %5, i64 %6
  tail call void @_Z9luaD_callP9lua_StateP10lua_TValuei(ptr noundef %0, ptr noundef %7, i32 noundef %2)
  %8 = icmp eq i32 %2, -1
  br i1 %8, label %9, label %16

9:                                                ; preds = %3
  %10 = load ptr, ptr %4, align 8, !tbaa !19
  %11 = getelementptr inbounds nuw i8, ptr %0, i64 32
  %12 = load ptr, ptr %11, align 8, !tbaa !24
  %13 = getelementptr inbounds nuw i8, ptr %12, i64 16
  %14 = load ptr, ptr %13, align 8, !tbaa !25
  %.not = icmp ult ptr %10, %14
  br i1 %.not, label %16, label %15

15:                                               ; preds = %9
  store ptr %10, ptr %13, align 8, !tbaa !25
  br label %16

16:                                               ; preds = %15, %9, %3
  ret void
}